
ntest:	file format mach-o arm64

Disassembly of section __TEXT,__text:

00000001000007b0 <_flare_f_0>:
1000007b0: a9bf7bfd    	stp	x29, x30, [sp, #-0x10]!
1000007b4: 90000000    	adrp	x0, 0x100000000 <_puts+0x100000000>
1000007b8: 91258000    	add	x0, x0, #0x960
1000007bc: 9400005f    	bl	0x100000938 <_puts+0x100000938>
1000007c0: 90000000    	adrp	x0, 0x100000000 <_puts+0x100000000>
1000007c4: 9121b000    	add	x0, x0, #0x86c
1000007c8: 9400005c    	bl	0x100000938 <_puts+0x100000938>
1000007cc: a8c17bfd    	ldp	x29, x30, [sp], #0x10
1000007d0: d65f03c0    	ret

00000001000007d4 <_main>:
1000007d4: a9bf7bfd    	stp	x29, x30, [sp, #-0x10]!
1000007d8: 97fffff6    	bl	0x1000007b0 <_flare_f_0>
1000007dc: a8c17bfd    	ldp	x29, x30, [sp], #0x10
1000007e0: d65f03c0    	ret

00000001000007e4 <_asan.module_ctor>:
1000007e4: d10083ff    	sub	sp, sp, #0x20
1000007e8: a9017bfd    	stp	x29, x30, [sp, #0x10]
1000007ec: 90000048    	adrp	x8, 0x100008000 <___asan_global_14123763368968195066>
1000007f0: 91014108    	add	x8, x8, #0x50
1000007f4: f90007e8    	str	x8, [sp, #0x8]
1000007f8: 94000038    	bl	0x1000008d8 <_puts+0x1000008d8>
1000007fc: 94000040    	bl	0x1000008fc <_puts+0x1000008fc>
100000800: f94007e0    	ldr	x0, [sp, #0x8]
100000804: 94000038    	bl	0x1000008e4 <_puts+0x1000008e4>
100000808: a9417bfd    	ldp	x29, x30, [sp, #0x10]
10000080c: 910083ff    	add	sp, sp, #0x20
100000810: d65f03c0    	ret

0000000100000814 <_asan.module_dtor>:
100000814: a9bf7bfd    	stp	x29, x30, [sp, #-0x10]!
100000818: 90000040    	adrp	x0, 0x100008000 <___asan_global_14123763368968195066>
10000081c: 91014000    	add	x0, x0, #0x50
100000820: 94000034    	bl	0x1000008f0 <_puts+0x1000008f0>
100000824: a8c17bfd    	ldp	x29, x30, [sp], #0x10
100000828: d65f03c0    	ret
10000082c: a9bf7bfd    	stp	x29, x30, [sp, #-0x10]!
100000830: 97fffff9    	bl	0x100000814 <_asan.module_dtor>
100000834: a8c17bfd    	ldp	x29, x30, [sp], #0x10
100000838: d65f03c0    	ret
10000083c: a9bf7bfd    	stp	x29, x30, [sp, #-0x10]!
100000840: 90000000    	adrp	x0, 0x100000000 <_puts+0x100000000>
100000844: 9120b000    	add	x0, x0, #0x82c
100000848: d2800001    	mov	x1, #0x0                ; =0
10000084c: 90000002    	adrp	x2, 0x100000000 <_puts+0x100000000>
100000850: 91000042    	add	x2, x2, #0x0
100000854: 9400002d    	bl	0x100000908 <_puts+0x100000908>
100000858: 34000060    	cbz	w0, 0x100000864 <_asan.module_dtor+0x50>
10000085c: 14000001    	b	0x100000860 <_asan.module_dtor+0x4c>
100000860: d4200020    	brk	#0x1
100000864: a8c17bfd    	ldp	x29, x30, [sp], #0x10
100000868: d65f03c0    	ret

000000010000086c <_get_line>:
10000086c: d100c3ff    	sub	sp, sp, #0x30
100000870: a9027bfd    	stp	x29, x30, [sp, #0x20]
100000874: 910083fd    	add	x29, sp, #0x20
100000878: d10023a0    	sub	x0, x29, #0x8
10000087c: f81f83bf    	stur	xzr, [x29, #-0x8]
100000880: 910043e1    	add	x1, sp, #0x10
100000884: f9000bff    	str	xzr, [sp, #0x10]
100000888: 90000028    	adrp	x8, 0x100004000 <_puts+0x100004000>
10000088c: f9401508    	ldr	x8, [x8, #0x28]
100000890: f9400102    	ldr	x2, [x8]
100000894: 94000023    	bl	0x100000920 <_puts+0x100000920>
100000898: f90007e0    	str	x0, [sp, #0x8]
10000089c: f94007e8    	ldr	x8, [sp, #0x8]
1000008a0: b4000108    	cbz	x8, 0x1000008c0 <_get_line+0x54>
1000008a4: 14000001    	b	0x1000008a8 <_get_line+0x3c>
1000008a8: 90000000    	adrp	x0, 0x100000000 <_puts+0x100000000>
1000008ac: 9126d400    	add	x0, x0, #0x9b5
1000008b0: 9400001f    	bl	0x10000092c <_puts+0x10000092c>
1000008b4: f94007e8    	ldr	x8, [sp, #0x8]
1000008b8: aa0803e0    	mov	x0, x8
1000008bc: 94000016    	bl	0x100000914 <_puts+0x100000914>
1000008c0: f85f83a0    	ldur	x0, [x29, #-0x8]
1000008c4: 9400001d    	bl	0x100000938 <_puts+0x100000938>
1000008c8: f85f83a0    	ldur	x0, [x29, #-0x8]
1000008cc: a9427bfd    	ldp	x29, x30, [sp, #0x20]
1000008d0: 9100c3ff    	add	sp, sp, #0x30
1000008d4: d65f03c0    	ret

Disassembly of section __TEXT,__stubs:

00000001000008d8 <__stubs>:
1000008d8: 90000030    	adrp	x16, 0x100004000 <_puts+0x100004000>
1000008dc: f9400210    	ldr	x16, [x16]
1000008e0: d61f0200    	br	x16
1000008e4: 90000030    	adrp	x16, 0x100004000 <_puts+0x100004000>
1000008e8: f9400610    	ldr	x16, [x16, #0x8]
1000008ec: d61f0200    	br	x16
1000008f0: 90000030    	adrp	x16, 0x100004000 <_puts+0x100004000>
1000008f4: f9400a10    	ldr	x16, [x16, #0x10]
1000008f8: d61f0200    	br	x16
1000008fc: 90000030    	adrp	x16, 0x100004000 <_puts+0x100004000>
100000900: f9400e10    	ldr	x16, [x16, #0x18]
100000904: d61f0200    	br	x16
100000908: 90000030    	adrp	x16, 0x100004000 <_puts+0x100004000>
10000090c: f9401210    	ldr	x16, [x16, #0x20]
100000910: d61f0200    	br	x16
100000914: 90000030    	adrp	x16, 0x100004000 <_puts+0x100004000>
100000918: f9401a10    	ldr	x16, [x16, #0x30]
10000091c: d61f0200    	br	x16
100000920: 90000030    	adrp	x16, 0x100004000 <_puts+0x100004000>
100000924: f9401e10    	ldr	x16, [x16, #0x38]
100000928: d61f0200    	br	x16
10000092c: 90000030    	adrp	x16, 0x100004000 <_puts+0x100004000>
100000930: f9402210    	ldr	x16, [x16, #0x40]
100000934: d61f0200    	br	x16
100000938: 90000030    	adrp	x16, 0x100004000 <_puts+0x100004000>
10000093c: f9402610    	ldr	x16, [x16, #0x48]
100000940: d61f0200    	br	x16
